; ModuleID = '10/1417.c'
source_filename = "10/1417.c"
target datalayout = "e-m:e-p270:32:32-p271:32:32-p272:64:64-i64:64-f80:128-n8:16:32:64-S128"
target triple = "x86_64-pc-linux-gnu"

@.str = private unnamed_addr constant [3 x i8] c"%d\00", align 1

; Function Attrs: noinline nounwind uwtable
define dso_local i32 @main() #0 {
  %1 = alloca i32, align 4
  %2 = alloca [25 x i32], align 16
  %3 = alloca [25 x i32], align 16
  %4 = alloca i32, align 4
  %5 = alloca i32, align 4
  %6 = alloca i32, align 4
  %7 = alloca i32, align 4
  %8 = alloca i32, align 4
  store i32 0, i32* %1, align 4
  %9 = call i32 (i8*, ...) @__isoc99_scanf(i8* getelementptr inbounds ([3 x i8], [3 x i8]* @.str, i64 0, i64 0), i32* %4)
  store i32 0, i32* %5, align 4
  br label %10

10:                                               ; preds = %22, %0
  %11 = load i32, i32* %5, align 4
  %12 = load i32, i32* %4, align 4
  %13 = icmp slt i32 %11, %12
  br i1 %13, label %14, label %25

14:                                               ; preds = %10
  %15 = load i32, i32* %5, align 4
  %16 = sext i32 %15 to i64
  %17 = getelementptr inbounds [25 x i32], [25 x i32]* %2, i64 0, i64 %16
  %18 = call i32 (i8*, ...) @__isoc99_scanf(i8* getelementptr inbounds ([3 x i8], [3 x i8]* @.str, i64 0, i64 0), i32* %17)
  %19 = load i32, i32* %5, align 4
  %20 = sext i32 %19 to i64
  %21 = getelementptr inbounds [25 x i32], [25 x i32]* %3, i64 0, i64 %20
  store i32 1, i32* %21, align 4
  br label %22

22:                                               ; preds = %14
  %23 = load i32, i32* %5, align 4
  %24 = add nsw i32 %23, 1
  store i32 %24, i32* %5, align 4
  br label %10

25:                                               ; preds = %10
  %26 = load i32, i32* %4, align 4
  %27 = sub nsw i32 %26, 1
  store i32 %27, i32* %6, align 4
  br label %28

28:                                               ; preds = %73, %25
  %29 = load i32, i32* %6, align 4
  %30 = icmp sge i32 %29, 0
  br i1 %30, label %31, label %76

31:                                               ; preds = %28
  %32 = load i32, i32* %6, align 4
  %33 = add nsw i32 %32, 1
  store i32 %33, i32* %7, align 4
  br label %34

34:                                               ; preds = %69, %31
  %35 = load i32, i32* %7, align 4
  %36 = load i32, i32* %4, align 4
  %37 = icmp slt i32 %35, %36
  br i1 %37, label %38, label %72

38:                                               ; preds = %34
  %39 = load i32, i32* %6, align 4
  %40 = sext i32 %39 to i64
  %41 = getelementptr inbounds [25 x i32], [25 x i32]* %2, i64 0, i64 %40
  %42 = load i32, i32* %41, align 4
  %43 = load i32, i32* %7, align 4
  %44 = sext i32 %43 to i64
  %45 = getelementptr inbounds [25 x i32], [25 x i32]* %2, i64 0, i64 %44
  %46 = load i32, i32* %45, align 4
  %47 = icmp sge i32 %42, %46
  br i1 %47, label %48, label %68

48:                                               ; preds = %38
  %49 = load i32, i32* %6, align 4
  %50 = sext i32 %49 to i64
  %51 = getelementptr inbounds [25 x i32], [25 x i32]* %3, i64 0, i64 %50
  %52 = load i32, i32* %51, align 4
  %53 = load i32, i32* %7, align 4
  %54 = sext i32 %53 to i64
  %55 = getelementptr inbounds [25 x i32], [25 x i32]* %3, i64 0, i64 %54
  %56 = load i32, i32* %55, align 4
  %57 = add nsw i32 %56, 1
  %58 = icmp slt i32 %52, %57
  br i1 %58, label %59, label %68

59:                                               ; preds = %48
  %60 = load i32, i32* %7, align 4
  %61 = sext i32 %60 to i64
  %62 = getelementptr inbounds [25 x i32], [25 x i32]* %3, i64 0, i64 %61
  %63 = load i32, i32* %62, align 4
  %64 = add nsw i32 %63, 1
  %65 = load i32, i32* %6, align 4
  %66 = sext i32 %65 to i64
  %67 = getelementptr inbounds [25 x i32], [25 x i32]* %3, i64 0, i64 %66
  store i32 %64, i32* %67, align 4
  br label %68

68:                                               ; preds = %59, %48, %38
  br label %69

69:                                               ; preds = %68
  %70 = load i32, i32* %7, align 4
  %71 = add nsw i32 %70, 1
  store i32 %71, i32* %7, align 4
  br label %34

72:                                               ; preds = %34
  br label %73

73:                                               ; preds = %72
  %74 = load i32, i32* %6, align 4
  %75 = add nsw i32 %74, -1
  store i32 %75, i32* %6, align 4
  br label %28

76:                                               ; preds = %28
  store i32 0, i32* %5, align 4
  br label %77

77:                                               ; preds = %110, %76
  %78 = load i32, i32* %5, align 4
  %79 = load i32, i32* %4, align 4
  %80 = sub nsw i32 %79, 1
  %81 = icmp slt i32 %78, %80
  br i1 %81, label %82, label %113

82:                                               ; preds = %77
  %83 = load i32, i32* %5, align 4
  %84 = sext i32 %83 to i64
  %85 = getelementptr inbounds [25 x i32], [25 x i32]* %3, i64 0, i64 %84
  %86 = load i32, i32* %85, align 4
  %87 = load i32, i32* %5, align 4
  %88 = add nsw i32 %87, 1
  %89 = sext i32 %88 to i64
  %90 = getelementptr inbounds [25 x i32], [25 x i32]* %3, i64 0, i64 %89
  %91 = load i32, i32* %90, align 4
  %92 = icmp sgt i32 %86, %91
  br i1 %92, label %93, label %98

93:                                               ; preds = %82
  %94 = load i32, i32* %5, align 4
  %95 = sext i32 %94 to i64
  %96 = getelementptr inbounds [25 x i32], [25 x i32]* %3, i64 0, i64 %95
  %97 = load i32, i32* %96, align 4
  br label %104

98:                                               ; preds = %82
  %99 = load i32, i32* %5, align 4
  %100 = add nsw i32 %99, 1
  %101 = sext i32 %100 to i64
  %102 = getelementptr inbounds [25 x i32], [25 x i32]* %3, i64 0, i64 %101
  %103 = load i32, i32* %102, align 4
  br label %104

104:                                              ; preds = %98, %93
  %105 = phi i32 [ %97, %93 ], [ %103, %98 ]
  %106 = load i32, i32* %5, align 4
  %107 = add nsw i32 %106, 1
  %108 = sext i32 %107 to i64
  %109 = getelementptr inbounds [25 x i32], [25 x i32]* %3, i64 0, i64 %108
  store i32 %105, i32* %109, align 4
  br label %110

110:                                              ; preds = %104
  %111 = load i32, i32* %5, align 4
  %112 = add nsw i32 %111, 1
  store i32 %112, i32* %5, align 4
  br label %77

113:                                              ; preds = %77
  %114 = load i32, i32* %4, align 4
  %115 = sub nsw i32 %114, 1
  %116 = sext i32 %115 to i64
  %117 = getelementptr inbounds [25 x i32], [25 x i32]* %3, i64 0, i64 %116
  %118 = load i32, i32* %117, align 4
  store i32 %118, i32* %8, align 4
  %119 = load i32, i32* %8, align 4
  %120 = call i32 (i8*, ...) @printf(i8* getelementptr inbounds ([3 x i8], [3 x i8]* @.str, i64 0, i64 0), i32 %119)
  %121 = load i32, i32* %1, align 4
  ret i32 %121
}

declare dso_local i32 @__isoc99_scanf(i8*, ...) #1

declare dso_local i32 @printf(i8*, ...) #1


!llvm.module.flags = !{!0}
!llvm.ident = !{!1}

!0 = !{i32 1, !"wchar_size", i32 4}
!1 = !{!"clang version 10.0.0-4ubuntu1 "}
